; ModuleID = 'source-C-CXX/27/1100.c'
source_filename = "source-C-CXX/27/1100.c"
target datalayout = "e-m:e-p270:32:32-p271:32:32-p272:64:64-i64:64-f80:128-n8:16:32:64-S128"
target triple = "x86_64-pc-linux-gnu"

@.str = private unnamed_addr constant [3 x i8] c"%d\00", align 1
@.str.1 = private unnamed_addr constant [4 x i8] c",%d\00", align 1

; Function Attrs: nounwind sspstrong uwtable
define dso_local i32 @main() local_unnamed_addr #0 {
  %1 = alloca [30000 x i8], align 16
  %2 = alloca [300 x i32], align 16
  %3 = getelementptr inbounds [30000 x i8], [30000 x i8]* %1, i64 0, i64 0
  call void @llvm.lifetime.start.p0i8(i64 30000, i8* nonnull %3) #5
  %4 = bitcast [300 x i32]* %2 to i8*
  call void @llvm.lifetime.start.p0i8(i64 1200, i8* nonnull %4) #5
  call void @llvm.memset.p0i8.i64(i8* noundef nonnull align 16 dereferenceable(1200) %4, i8 0, i64 1200, i1 false)
  %5 = call i32 (i8*, ...) bitcast (i32 (...)* @gets to i32 (i8*, ...)*)(i8* nonnull %3) #5
  br label %6

6:                                                ; preds = %24, %0
  %7 = phi i32 [ 0, %0 ], [ %25, %24 ]
  %8 = phi i32 [ 0, %0 ], [ %27, %24 ]
  %9 = sext i32 %8 to i64
  %10 = getelementptr inbounds [30000 x i8], [30000 x i8]* %1, i64 0, i64 %9
  %11 = load i8, i8* %10, align 1, !tbaa !5
  switch i8 %11, label %12 [
    i8 0, label %28
    i8 32, label %24
  ]

12:                                               ; preds = %6, %12
  %13 = phi i64 [ %14, %12 ], [ %9, %6 ]
  %14 = add nsw i64 %13, 1
  %15 = getelementptr inbounds [30000 x i8], [30000 x i8]* %1, i64 0, i64 %14
  %16 = load i8, i8* %15, align 1, !tbaa !5
  switch i8 %16, label %12 [
    i8 0, label %17
    i8 32, label %17
  ], !llvm.loop !8

17:                                               ; preds = %12, %12
  %18 = trunc i64 %14 to i32
  %19 = sub nsw i32 %18, %8
  %20 = sext i32 %7 to i64
  %21 = getelementptr inbounds [300 x i32], [300 x i32]* %2, i64 0, i64 %20
  store i32 %19, i32* %21, align 4, !tbaa !10
  %22 = add nsw i32 %7, 1
  %23 = icmp eq i8 %16, 0
  br i1 %23, label %28, label %24

24:                                               ; preds = %17, %6
  %25 = phi i32 [ %7, %6 ], [ %22, %17 ]
  %26 = phi i32 [ %8, %6 ], [ %18, %17 ]
  %27 = add nsw i32 %26, 1
  br label %6, !llvm.loop !12

28:                                               ; preds = %6, %17
  %29 = phi i32 [ %22, %17 ], [ %7, %6 ]
  %30 = getelementptr inbounds [300 x i32], [300 x i32]* %2, i64 0, i64 0
  %31 = load i32, i32* %30, align 16, !tbaa !10
  %32 = call i32 (i8*, ...) @printf(i8* nonnull dereferenceable(1) getelementptr inbounds ([3 x i8], [3 x i8]* @.str, i64 0, i64 0), i32 %31)
  %33 = icmp sgt i32 %29, 1
  br i1 %33, label %34, label %43

34:                                               ; preds = %28
  %35 = zext i32 %29 to i64
  br label %36

36:                                               ; preds = %34, %36
  %37 = phi i64 [ 1, %34 ], [ %41, %36 ]
  %38 = getelementptr inbounds [300 x i32], [300 x i32]* %2, i64 0, i64 %37
  %39 = load i32, i32* %38, align 4, !tbaa !10
  %40 = call i32 (i8*, ...) @printf(i8* nonnull dereferenceable(1) getelementptr inbounds ([4 x i8], [4 x i8]* @.str.1, i64 0, i64 0), i32 %39)
  %41 = add nuw nsw i64 %37, 1
  %42 = icmp eq i64 %41, %35
  br i1 %42, label %43, label %36, !llvm.loop !13

43:                                               ; preds = %36, %28
  call void @llvm.lifetime.end.p0i8(i64 1200, i8* nonnull %4) #5
  call void @llvm.lifetime.end.p0i8(i64 30000, i8* nonnull %3) #5
  ret i32 0
}

; Function Attrs: argmemonly mustprogress nofree nosync nounwind willreturn
declare void @llvm.lifetime.start.p0i8(i64 immarg, i8* nocapture) #1

; Function Attrs: argmemonly mustprogress nofree nounwind willreturn writeonly
declare void @llvm.memset.p0i8.i64(i8* nocapture writeonly, i8, i64, i1 immarg) #2

declare i32 @gets(...) local_unnamed_addr #3

; Function Attrs: nofree nounwind
declare noundef i32 @printf(i8* nocapture noundef readonly, ...) local_unnamed_addr #4

; Function Attrs: argmemonly mustprogress nofree nosync nounwind willreturn
declare void @llvm.lifetime.end.p0i8(i64 immarg, i8* nocapture) #1


!llvm.module.flags = !{!0, !1, !2, !3}
!llvm.ident = !{!4}

!0 = !{i32 1, !"wchar_size", i32 4}
!1 = !{i32 7, !"PIC Level", i32 2}
!2 = !{i32 7, !"PIE Level", i32 2}
!3 = !{i32 7, !"uwtable", i32 1}
!4 = !{!"clang version 13.0.0"}
!5 = !{!6, !6, i64 0}
!6 = !{!"omnipotent char", !7, i64 0}
!7 = !{!"Simple C/C++ TBAA"}
!8 = distinct !{!8, !9}
!9 = !{!"llvm.loop.mustprogress"}
!10 = !{!11, !11, i64 0}
!11 = !{!"int", !6, i64 0}
!12 = distinct !{!12, !9}
!13 = distinct !{!13, !9}
